; ModuleID = '58/953.c'
source_filename = "58/953.c"
target datalayout = "e-m:e-p270:32:32-p271:32:32-p272:64:64-i64:64-f80:128-n8:16:32:64-S128"
target triple = "x86_64-pc-linux-gnu"

@.str = private unnamed_addr constant [3 x i8] c"%d\00", align 1
@.str.1 = private unnamed_addr constant [3 x i8] c"0\0A\00", align 1
@.str.2 = private unnamed_addr constant [3 x i8] c"1\0A\00", align 1

; Function Attrs: noinline nounwind uwtable
define dso_local i32 @main() #0 {
  %1 = alloca i32, align 4
  %2 = alloca i32, align 4
  %3 = alloca i32, align 4
  %4 = alloca i32, align 4
  %5 = alloca i32, align 4
  %6 = alloca i32, align 4
  %7 = alloca [85 x i8], align 16
  store i32 0, i32* %1, align 4
  store i32 0, i32* %6, align 4
  %8 = call i32 (i8*, ...) @__isoc99_scanf(i8* getelementptr inbounds ([3 x i8], [3 x i8]* @.str, i64 0, i64 0), i32* %2)
  %9 = call i32 @getchar()
  store i32 0, i32* %3, align 4
  br label %10

10:                                               ; preds = %146, %0
  %11 = load i32, i32* %3, align 4
  %12 = load i32, i32* %2, align 4
  %13 = icmp slt i32 %11, %12
  br i1 %13, label %14, label %149

14:                                               ; preds = %10
  %15 = getelementptr inbounds [85 x i8], [85 x i8]* %7, i64 0, i64 0
  %16 = call i32 (i8*, ...) bitcast (i32 (...)* @gets to i32 (i8*, ...)*)(i8* %15)
  %17 = getelementptr inbounds [85 x i8], [85 x i8]* %7, i64 0, i64 0
  %18 = call i64 @strlen(i8* %17) #3
  %19 = trunc i64 %18 to i32
  store i32 %19, i32* %5, align 4
  %20 = load i32, i32* %5, align 4
  %21 = icmp sgt i32 %20, 1
  br i1 %21, label %22, label %108

22:                                               ; preds = %14
  %23 = getelementptr inbounds [85 x i8], [85 x i8]* %7, i64 0, i64 0
  %24 = load i8, i8* %23, align 16
  %25 = sext i8 %24 to i32
  %26 = icmp eq i32 %25, 95
  br i1 %26, label %47, label %27

27:                                               ; preds = %22
  %28 = getelementptr inbounds [85 x i8], [85 x i8]* %7, i64 0, i64 0
  %29 = load i8, i8* %28, align 16
  %30 = sext i8 %29 to i32
  %31 = icmp sgt i32 %30, 64
  br i1 %31, label %32, label %37

32:                                               ; preds = %27
  %33 = getelementptr inbounds [85 x i8], [85 x i8]* %7, i64 0, i64 0
  %34 = load i8, i8* %33, align 16
  %35 = sext i8 %34 to i32
  %36 = icmp slt i32 %35, 91
  br i1 %36, label %47, label %37

37:                                               ; preds = %32, %27
  %38 = getelementptr inbounds [85 x i8], [85 x i8]* %7, i64 0, i64 0
  %39 = load i8, i8* %38, align 16
  %40 = sext i8 %39 to i32
  %41 = icmp sgt i32 %40, 96
  br i1 %41, label %42, label %108

42:                                               ; preds = %37
  %43 = getelementptr inbounds [85 x i8], [85 x i8]* %7, i64 0, i64 0
  %44 = load i8, i8* %43, align 16
  %45 = sext i8 %44 to i32
  %46 = icmp slt i32 %45, 123
  br i1 %46, label %47, label %108

47:                                               ; preds = %42, %32, %22
  store i32 1, i32* %4, align 4
  br label %48

48:                                               ; preds = %104, %47
  %49 = load i32, i32* %4, align 4
  %50 = load i32, i32* %5, align 4
  %51 = icmp slt i32 %49, %50
  br i1 %51, label %52, label %107

52:                                               ; preds = %48
  %53 = load i32, i32* %4, align 4
  %54 = sext i32 %53 to i64
  %55 = getelementptr inbounds [85 x i8], [85 x i8]* %7, i64 0, i64 %54
  %56 = load i8, i8* %55, align 1
  %57 = sext i8 %56 to i32
  %58 = icmp eq i32 %57, 95
  br i1 %58, label %101, label %59

59:                                               ; preds = %52
  %60 = load i32, i32* %4, align 4
  %61 = sext i32 %60 to i64
  %62 = getelementptr inbounds [85 x i8], [85 x i8]* %7, i64 0, i64 %61
  %63 = load i8, i8* %62, align 1
  %64 = sext i8 %63 to i32
  %65 = icmp sgt i32 %64, 64
  br i1 %65, label %66, label %73

66:                                               ; preds = %59
  %67 = load i32, i32* %4, align 4
  %68 = sext i32 %67 to i64
  %69 = getelementptr inbounds [85 x i8], [85 x i8]* %7, i64 0, i64 %68
  %70 = load i8, i8* %69, align 1
  %71 = sext i8 %70 to i32
  %72 = icmp slt i32 %71, 91
  br i1 %72, label %101, label %73

73:                                               ; preds = %66, %59
  %74 = load i32, i32* %4, align 4
  %75 = sext i32 %74 to i64
  %76 = getelementptr inbounds [85 x i8], [85 x i8]* %7, i64 0, i64 %75
  %77 = load i8, i8* %76, align 1
  %78 = sext i8 %77 to i32
  %79 = icmp sgt i32 %78, 96
  br i1 %79, label %80, label %87

80:                                               ; preds = %73
  %81 = load i32, i32* %4, align 4
  %82 = sext i32 %81 to i64
  %83 = getelementptr inbounds [85 x i8], [85 x i8]* %7, i64 0, i64 %82
  %84 = load i8, i8* %83, align 1
  %85 = sext i8 %84 to i32
  %86 = icmp slt i32 %85, 123
  br i1 %86, label %101, label %87

87:                                               ; preds = %80, %73
  %88 = load i32, i32* %4, align 4
  %89 = sext i32 %88 to i64
  %90 = getelementptr inbounds [85 x i8], [85 x i8]* %7, i64 0, i64 %89
  %91 = load i8, i8* %90, align 1
  %92 = sext i8 %91 to i32
  %93 = icmp sgt i32 %92, 47
  br i1 %93, label %94, label %102

94:                                               ; preds = %87
  %95 = load i32, i32* %4, align 4
  %96 = sext i32 %95 to i64
  %97 = getelementptr inbounds [85 x i8], [85 x i8]* %7, i64 0, i64 %96
  %98 = load i8, i8* %97, align 1
  %99 = sext i8 %98 to i32
  %100 = icmp slt i32 %99, 58
  br i1 %100, label %101, label %102

101:                                              ; preds = %94, %80, %66, %52
  store i32 1, i32* %6, align 4
  br label %103

102:                                              ; preds = %94, %87
  store i32 0, i32* %6, align 4
  br label %107

103:                                              ; preds = %101
  br label %104

104:                                              ; preds = %103
  %105 = load i32, i32* %4, align 4
  %106 = add nsw i32 %105, 1
  store i32 %106, i32* %4, align 4
  br label %48

107:                                              ; preds = %102, %48
  br label %138

108:                                              ; preds = %42, %37, %14
  %109 = load i32, i32* %5, align 4
  %110 = icmp eq i32 %109, 1
  br i1 %110, label %111, label %137

111:                                              ; preds = %108
  %112 = getelementptr inbounds [85 x i8], [85 x i8]* %7, i64 0, i64 0
  %113 = load i8, i8* %112, align 16
  %114 = sext i8 %113 to i32
  %115 = icmp eq i32 %114, 95
  br i1 %115, label %136, label %116

116:                                              ; preds = %111
  %117 = getelementptr inbounds [85 x i8], [85 x i8]* %7, i64 0, i64 0
  %118 = load i8, i8* %117, align 16
  %119 = sext i8 %118 to i32
  %120 = icmp sgt i32 %119, 64
  br i1 %120, label %121, label %126

121:                                              ; preds = %116
  %122 = getelementptr inbounds [85 x i8], [85 x i8]* %7, i64 0, i64 0
  %123 = load i8, i8* %122, align 16
  %124 = sext i8 %123 to i32
  %125 = icmp slt i32 %124, 91
  br i1 %125, label %136, label %126

126:                                              ; preds = %121, %116
  %127 = getelementptr inbounds [85 x i8], [85 x i8]* %7, i64 0, i64 0
  %128 = load i8, i8* %127, align 16
  %129 = sext i8 %128 to i32
  %130 = icmp sgt i32 %129, 96
  br i1 %130, label %131, label %137

131:                                              ; preds = %126
  %132 = getelementptr inbounds [85 x i8], [85 x i8]* %7, i64 0, i64 0
  %133 = load i8, i8* %132, align 16
  %134 = sext i8 %133 to i32
  %135 = icmp slt i32 %134, 123
  br i1 %135, label %136, label %137

136:                                              ; preds = %131, %121, %111
  store i32 1, i32* %6, align 4
  br label %137

137:                                              ; preds = %136, %131, %126, %108
  br label %138

138:                                              ; preds = %137, %107
  %139 = load i32, i32* %6, align 4
  %140 = icmp eq i32 %139, 0
  br i1 %140, label %141, label %143

141:                                              ; preds = %138
  %142 = call i32 (i8*, ...) @printf(i8* getelementptr inbounds ([3 x i8], [3 x i8]* @.str.1, i64 0, i64 0))
  br label %145

143:                                              ; preds = %138
  %144 = call i32 (i8*, ...) @printf(i8* getelementptr inbounds ([3 x i8], [3 x i8]* @.str.2, i64 0, i64 0))
  br label %145

145:                                              ; preds = %143, %141
  store i32 0, i32* %6, align 4
  br label %146

146:                                              ; preds = %145
  %147 = load i32, i32* %3, align 4
  %148 = add nsw i32 %147, 1
  store i32 %148, i32* %3, align 4
  br label %10

149:                                              ; preds = %10
  %150 = load i32, i32* %1, align 4
  ret i32 %150
}

declare dso_local i32 @__isoc99_scanf(i8*, ...) #1

declare dso_local i32 @getchar() #1

declare dso_local i32 @gets(...) #1

; Function Attrs: nounwind readonly
declare dso_local i64 @strlen(i8*) #2

declare dso_local i32 @printf(i8*, ...) #1


!llvm.module.flags = !{!0}
!llvm.ident = !{!1}

!0 = !{i32 1, !"wchar_size", i32 4}
!1 = !{!"clang version 10.0.0-4ubuntu1 "}
